target datalayout = "e-m:e-p270:32:32-p271:32:32-p272:64:64-i64:64-i128:128-f80:128-n8:16:32:64-S128"
target triple = "x86_64-unknown-linux-gnu"

%"class.node::MutexBase" = type { %union.pthread_mutex_t }
%union.pthread_mutex_t = type { %struct.__pthread_mutex_s }
%struct.__pthread_mutex_s = type { i32, i32, i32, i32, i32, i16, i16, %struct.__pthread_internal_list }
%struct.__pthread_internal_list = type { ptr, ptr }
%"class.node::ConditionVariableBase" = type { %union.pthread_cond_t }
%union.pthread_cond_t = type { %struct.__pthread_cond_s }
%struct.__pthread_cond_s = type { %union.__atomic_wide_counter, %union.__atomic_wide_counter, [2 x i32], [2 x i32], i32, i32, [2 x i32] }
%union.__atomic_wide_counter = type { i64 }
%"class.node::MutexBase<node::LibuvMutexTraits>::ScopedLock" = type { ptr }
%"class.std::unique_ptr" = type { %"struct.std::__uniq_ptr_data" }
%"struct.std::__uniq_ptr_data" = type { %"class.std::__uniq_ptr_impl" }
%"class.std::__uniq_ptr_impl" = type { %"class.std::tuple" }
%"class.std::tuple" = type { %"struct.std::_Tuple_impl" }
%"struct.std::_Tuple_impl" = type { %"struct.std::_Head_base.1" }
%"struct.std::_Head_base.1" = type { ptr }
%"class.node::WorkerThreadsTaskRunner" = type { %"class.node::TaskQueue", %"class.std::unique_ptr", %"class.std::vector" }
%"class.node::TaskQueue" = type { %"class.node::MutexBase", %"class.node::ConditionVariableBase", %"class.node::ConditionVariableBase", i32, i8, %"class.std::queue" }
%"class.std::queue" = type { %"class.std::deque" }
%"class.std::deque" = type { %"class.std::_Deque_base" }
%"class.std::_Deque_base" = type { %"struct.std::_Deque_base<std::unique_ptr<v8::Task>, std::allocator<std::unique_ptr<v8::Task>>>::_Deque_impl" }
%"struct.std::_Deque_base<std::unique_ptr<v8::Task>, std::allocator<std::unique_ptr<v8::Task>>>::_Deque_impl" = type { %"struct.std::_Deque_base<std::unique_ptr<v8::Task>, std::allocator<std::unique_ptr<v8::Task>>>::_Deque_impl_data" }
%"struct.std::_Deque_base<std::unique_ptr<v8::Task>, std::allocator<std::unique_ptr<v8::Task>>>::_Deque_impl_data" = type { ptr, i64, %"struct.std::_Deque_iterator", %"struct.std::_Deque_iterator" }
%"struct.std::_Deque_iterator" = type { ptr, ptr, ptr, ptr }
%"class.std::vector" = type { %"struct.std::_Vector_base" }
%"struct.std::_Vector_base" = type { %"struct.std::_Vector_base<std::unique_ptr<unsigned long>, std::allocator<std::unique_ptr<unsigned long>>>::_Vector_impl" }
%"struct.std::_Vector_base<std::unique_ptr<unsigned long>, std::allocator<std::unique_ptr<unsigned long>>>::_Vector_impl" = type { %"struct.std::_Vector_base<std::unique_ptr<unsigned long>, std::allocator<std::unique_ptr<unsigned long>>>::_Vector_impl_data" }
%"struct.std::_Vector_base<std::unique_ptr<unsigned long>, std::allocator<std::unique_ptr<unsigned long>>>::_Vector_impl_data" = type { ptr, ptr, ptr }

; Function Attrs: mustprogress nounwind uwtable
define linkonce_odr dso_local void @_ZN4node16LibuvMutexTraits12mutex_unlockEP15pthread_mutex_t(ptr noundef %mutex) #4 comdat align 2 {
entry:
  %mutex.addr = alloca ptr, align 8
  store ptr %mutex, ptr %mutex.addr, align 8
  %0 = load ptr, ptr %mutex.addr, align 8
  call void @uv_mutex_unlock(ptr noundef %0)
  ret void
}

; Function Attrs: mustprogress nounwind uwtable
define linkonce_odr dso_local void @_ZN4node16LibuvMutexTraits9cond_waitEP14pthread_cond_tP15pthread_mutex_t(ptr noundef %cond, ptr noundef %mutex) #4 comdat align 2 {
entry:
  %cond.addr = alloca ptr, align 8
  %mutex.addr = alloca ptr, align 8
  store ptr %cond, ptr %cond.addr, align 8
  store ptr %mutex, ptr %mutex.addr, align 8
  %0 = load ptr, ptr %cond.addr, align 8
  %1 = load ptr, ptr %mutex.addr, align 8
  call void @uv_cond_wait(ptr noundef %0, ptr noundef %1)
  ret void
}

; Function Attrs: mustprogress nounwind uwtable
define linkonce_odr dso_local void @_ZN4node16LibuvMutexTraits10mutex_lockEP15pthread_mutex_t(ptr noundef %mutex) #4 comdat align 2 {
entry:
  %mutex.addr = alloca ptr, align 8
  store ptr %mutex, ptr %mutex.addr, align 8
  %0 = load ptr, ptr %mutex.addr, align 8
  call void @uv_mutex_lock(ptr noundef %0)
  ret void
}

; Function Attrs: mustprogress nounwind uwtable
define linkonce_odr dso_local void @_ZN4node9MutexBaseINS_16LibuvMutexTraitsEE10ScopedLockD2Ev(ptr noundef nonnull align 8 dereferenceable(8) %this) unnamed_addr #4 comdat align 2 {
entry:
  %this.addr = alloca ptr, align 8
  store ptr %this, ptr %this.addr, align 8
  %this1 = load ptr, ptr %this.addr, align 8
  %mutex_ = getelementptr inbounds %"class.node::MutexBase<node::LibuvMutexTraits>::ScopedLock", ptr %this1, i32 0, i32 0
  %0 = load ptr, ptr %mutex_, align 8
  %mutex_2 = getelementptr inbounds %"class.node::MutexBase", ptr %0, i32 0, i32 0
  call void @_ZN4node16LibuvMutexTraits12mutex_unlockEP15pthread_mutex_t(ptr noundef %mutex_2)
  ret void
}

; Function Attrs: mustprogress nounwind uwtable
define linkonce_odr dso_local void @_ZN4node21ConditionVariableBaseINS_16LibuvMutexTraitsEE4WaitERKNS_9MutexBaseIS1_E10ScopedLockE(ptr noundef nonnull align 8 dereferenceable(48) %this, ptr noundef nonnull align 8 dereferenceable(8) %scoped_lock) #4 comdat align 2 {
entry:
  %this.addr = alloca ptr, align 8
  %scoped_lock.addr = alloca ptr, align 8
  store ptr %this, ptr %this.addr, align 8
  store ptr %scoped_lock, ptr %scoped_lock.addr, align 8
  %this1 = load ptr, ptr %this.addr, align 8
  %cond_ = getelementptr inbounds %"class.node::ConditionVariableBase", ptr %this1, i32 0, i32 0
  %0 = load ptr, ptr %scoped_lock.addr, align 8
  %mutex_ = getelementptr inbounds %"class.node::MutexBase<node::LibuvMutexTraits>::ScopedLock", ptr %0, i32 0, i32 0
  %1 = load ptr, ptr %mutex_, align 8
  %mutex_2 = getelementptr inbounds %"class.node::MutexBase", ptr %1, i32 0, i32 0
  call void @_ZN4node16LibuvMutexTraits9cond_waitEP14pthread_cond_tP15pthread_mutex_t(ptr noundef %cond_, ptr noundef %mutex_2)
  ret void
}

; Function Attrs: mustprogress nounwind uwtable
define linkonce_odr dso_local void @_ZN4node9MutexBaseINS_16LibuvMutexTraitsEE10ScopedLockC2ERKS2_(ptr noundef nonnull align 8 dereferenceable(8) %this, ptr noundef nonnull align 8 dereferenceable(40) %mutex) unnamed_addr #4 comdat align 2 {
entry:
  %this.addr = alloca ptr, align 8
  %mutex.addr = alloca ptr, align 8
  store ptr %this, ptr %this.addr, align 8
  store ptr %mutex, ptr %mutex.addr, align 8
  %this1 = load ptr, ptr %this.addr, align 8
  %mutex_ = getelementptr inbounds %"class.node::MutexBase<node::LibuvMutexTraits>::ScopedLock", ptr %this1, i32 0, i32 0
  %0 = load ptr, ptr %mutex.addr, align 8
  store ptr %0, ptr %mutex_, align 8
  %mutex_2 = getelementptr inbounds %"class.node::MutexBase<node::LibuvMutexTraits>::ScopedLock", ptr %this1, i32 0, i32 0
  %1 = load ptr, ptr %mutex_2, align 8
  %mutex_3 = getelementptr inbounds %"class.node::MutexBase", ptr %1, i32 0, i32 0
  call void @_ZN4node16LibuvMutexTraits10mutex_lockEP15pthread_mutex_t(ptr noundef %mutex_3)
  ret void
}

; Function Attrs: mustprogress nounwind uwtable
define linkonce_odr dso_local void @_ZN4node9TaskQueueIN2v84TaskEE13BlockingDrainEv(ptr noundef nonnull align 8 dereferenceable(224) %this) #4 comdat align 2 {
entry:
  %this.addr = alloca ptr, align 8
  %scoped_lock = alloca %"class.node::MutexBase<node::LibuvMutexTraits>::ScopedLock", align 8
  store ptr %this, ptr %this.addr, align 8
  %this1 = load ptr, ptr %this.addr, align 8
  %lock_ = getelementptr inbounds %"class.node::TaskQueue", ptr %this1, i32 0, i32 0
  call void @_ZN4node9MutexBaseINS_16LibuvMutexTraitsEE10ScopedLockC2ERKS2_(ptr noundef nonnull align 8 dereferenceable(8) %scoped_lock, ptr noundef nonnull align 8 dereferenceable(40) %lock_)
  br label %while.cond

while.cond:                                       ; preds = %while.body, %entry
  %outstanding_tasks_ = getelementptr inbounds %"class.node::TaskQueue", ptr %this1, i32 0, i32 3
  %0 = load i32, ptr %outstanding_tasks_, align 8
  %cmp = icmp sgt i32 %0, 0
  br i1 %cmp, label %while.body, label %while.end

while.body:                                       ; preds = %while.cond
  %tasks_drained_ = getelementptr inbounds %"class.node::TaskQueue", ptr %this1, i32 0, i32 2
  call void @_ZN4node21ConditionVariableBaseINS_16LibuvMutexTraitsEE4WaitERKNS_9MutexBaseIS1_E10ScopedLockE(ptr noundef nonnull align 8 dereferenceable(48) %tasks_drained_, ptr noundef nonnull align 8 dereferenceable(8) %scoped_lock)
  br label %while.cond, !llvm.loop !9

while.end:                                        ; preds = %while.cond
  call void @_ZN4node9MutexBaseINS_16LibuvMutexTraitsEE10ScopedLockD2Ev(ptr noundef nonnull align 8 dereferenceable(8) %scoped_lock) #3
  ret void
}

; Function Attrs: mustprogress nounwind uwtable
define dso_local void @_ZN4node23WorkerThreadsTaskRunner13BlockingDrainEv(ptr noundef nonnull align 8 dereferenceable(256) %this) #4 align 2 {
entry:
  %this.addr = alloca ptr, align 8
  store ptr %this, ptr %this.addr, align 8
  %this1 = load ptr, ptr %this.addr, align 8
  %pending_worker_tasks_ = getelementptr inbounds %"class.node::WorkerThreadsTaskRunner", ptr %this1, i32 0, i32 0
  call void @_ZN4node9TaskQueueIN2v84TaskEE13BlockingDrainEv(ptr noundef nonnull align 8 dereferenceable(224) %pending_worker_tasks_)
  ret void
}