; Function Attrs: mustprogress nounwind uwtable
define dso_local void @_ZN4node23WorkerThreadsTaskRunner13BlockingDrainEv(ptr noundef nonnull align 8 dereferenceable(256) %this) local_unnamed_addr #3 align 2 {
entry:
  tail call void @uv_mutex_lock(ptr noundef nonnull %this) #23
  %outstanding_tasks_.i = getelementptr inbounds i8, ptr %this, i64 136
  %0 = load i32, ptr %outstanding_tasks_.i, align 8
  %cmp2.i = icmp sgt i32 %0, 0
  br i1 %cmp2.i, label %while.body.lr.ph.i, label %_ZN4node9TaskQueueIN2v84TaskEE13BlockingDrainEv.exit

while.body.lr.ph.i:                               ; preds = %entry
  %tasks_drained_.i = getelementptr inbounds i8, ptr %this, i64 88
  br label %while.body.i

while.body.i:                                     ; preds = %while.body.i, %while.body.lr.ph.i
  tail call void @uv_cond_wait(ptr noundef nonnull %tasks_drained_.i, ptr noundef nonnull %this) #23
  %1 = load i32, ptr %outstanding_tasks_.i, align 8
  %cmp.i = icmp sgt i32 %1, 0
  br i1 %cmp.i, label %while.body.i, label %_ZN4node9TaskQueueIN2v84TaskEE13BlockingDrainEv.exit, !llvm.loop !28

_ZN4node9TaskQueueIN2v84TaskEE13BlockingDrainEv.exit: ; preds = %while.body.i, %entry
  tail call void @uv_mutex_unlock(ptr noundef nonnull %this) #23
  ret void
}